target datalayout = "e-m:e-p270:32:32-p271:32:32-p272:64:64-i64:64-i128:128-f80:128-n8:16:32:64-S128"
target triple = "x86_64-pc-linux-gnu"

%"class.gmx::AbstractPlotModule" = type { %"class.gmx::AnalysisDataModuleSerial", %"class.std::unique_ptr.26" }
%"class.gmx::AnalysisDataModuleSerial" = type { %"class.gmx::IAnalysisDataModule" }
%"class.gmx::IAnalysisDataModule" = type { ptr }
%"class.std::unique_ptr.26" = type { %"struct.std::__uniq_ptr_data.27" }
%"struct.std::__uniq_ptr_data.27" = type { %"class.std::__uniq_ptr_impl.28" }
%"class.std::__uniq_ptr_impl.28" = type { %"class.std::tuple.29" }
%"class.std::tuple.29" = type { %"struct.std::_Tuple_impl.30" }
%"struct.std::_Tuple_impl.30" = type { %"struct.std::_Head_base.33" }
%"struct.std::_Head_base.33" = type { ptr }
%"class.gmx::AnalysisDataVectorPlotModule" = type <{ %"class.gmx::AbstractPlotModule", [4 x i8], [4 x i8] }>

; Function Attrs: mustprogress nounwind uwtable
define void @_ZN3gmx28AnalysisDataVectorPlotModule12setWriteMaskEPKb(ptr noundef nonnull align 8 dereferenceable(20) %0, ptr noundef %1) #0 align 2 {
  %3 = alloca ptr, align 8
  %4 = alloca ptr, align 8
  %5 = alloca i32, align 4
  store ptr %0, ptr %3, align 8, !tbaa !54
  store ptr %1, ptr %4, align 8, !tbaa !366
  %6 = load ptr, ptr %3, align 8
  call void @llvm.lifetime.start.p0(i64 4, ptr %5) #21
  store i32 0, ptr %5, align 4, !tbaa !44
  br label %7

7:                                                ; preds = %23, %2
  %8 = load i32, ptr %5, align 4, !tbaa !44
  %9 = icmp slt i32 %8, 4
  br i1 %9, label %11, label %10

10:                                               ; preds = %7
  call void @llvm.lifetime.end.p0(i64 4, ptr %5) #21
  br label %26

11:                                               ; preds = %7
  %12 = load ptr, ptr %4, align 8, !tbaa !366
  %13 = load i32, ptr %5, align 4, !tbaa !44
  %14 = sext i32 %13 to i64
  %15 = getelementptr inbounds i8, ptr %12, i64 %14
  %16 = load i8, ptr %15, align 1, !tbaa !56, !range !29, !noundef !30
  %17 = trunc i8 %16 to i1
  %18 = getelementptr inbounds nuw %"class.gmx::AnalysisDataVectorPlotModule", ptr %6, i32 0, i32 1
  %19 = load i32, ptr %5, align 4, !tbaa !44
  %20 = sext i32 %19 to i64
  %21 = getelementptr inbounds [4 x i8], ptr %18, i64 0, i64 %20
  %22 = zext i1 %17 to i8
  store i8 %22, ptr %21, align 1, !tbaa !56
  br label %23

23:                                               ; preds = %11
  %24 = load i32, ptr %5, align 4, !tbaa !44
  %25 = add nsw i32 %24, 1
  store i32 %25, ptr %5, align 4, !tbaa !44
  br label %7, !llvm.loop !367

26:                                               ; preds = %10
  ret void
}