; Function Attrs: mustprogress nofree norecurse nosync nounwind memory(argmem: readwrite) uwtable
define void @_ZN3gmx28AnalysisDataVectorPlotModule12setWriteMaskEPKb(ptr noundef nonnull writeonly align 8 captures(none) dereferenceable(20) %0, ptr noundef readonly captures(none) %1) local_unnamed_addr #23 align 2 {
  %3 = getelementptr inbounds nuw i8, ptr %0, i64 16
  br label %5

4:                                                ; preds = %5
  ret void

5:                                                ; preds = %2, %5
  %indvars.iv = phi i64 [ 0, %2 ], [ %indvars.iv.next, %5 ]
  %6 = getelementptr inbounds nuw i8, ptr %1, i64 %indvars.iv
  %7 = load i8, ptr %6, align 1, !tbaa !61, !range !28, !noundef !29
  %8 = getelementptr inbounds nuw [4 x i8], ptr %3, i64 0, i64 %indvars.iv
  store i8 %7, ptr %8, align 1, !tbaa !61
  %indvars.iv.next = add nuw nsw i64 %indvars.iv, 1
  %exitcond.not = icmp eq i64 %indvars.iv.next, 4
  br i1 %exitcond.not, label %4, label %5, !llvm.loop !151
}